target datalayout = "e-m:e-p270:32:32-p271:32:32-p272:64:64-i64:64-i128:128-f80:128-n8:16:32:64-S128"
target triple = "x86_64-pc-linux-gnu"

; Function Attrs: nounwind uwtable
define dso_local double @ArHosekSkyModel_CookRadianceConfiguration(ptr noundef %0, double noundef %1, double noundef %2, double noundef %3) #0 {
  %5 = alloca double, align 8
  %6 = alloca ptr, align 8
  %7 = alloca double, align 8
  %8 = alloca double, align 8
  %9 = alloca double, align 8
  %10 = alloca ptr, align 8
  %11 = alloca i32, align 4
  %12 = alloca double, align 8
  %13 = alloca double, align 8
  %14 = alloca i32, align 4
  store ptr %0, ptr %6, align 8, !tbaa !4
  store double %1, ptr %7, align 8, !tbaa !9
  store double %2, ptr %8, align 8, !tbaa !9
  store double %3, ptr %9, align 8, !tbaa !9
  call void @llvm.lifetime.start.p0(i64 8, ptr %10) #5
  call void @llvm.lifetime.start.p0(i64 4, ptr %11) #5
  %15 = load double, ptr %7, align 8, !tbaa !9
  %16 = fptosi double %15 to i32
  store i32 %16, ptr %11, align 4, !tbaa !11
  call void @llvm.lifetime.start.p0(i64 8, ptr %12) #5
  %17 = load double, ptr %7, align 8, !tbaa !9
  %18 = load i32, ptr %11, align 4, !tbaa !11
  %19 = sitofp i32 %18 to double
  %20 = fsub double %17, %19
  store double %20, ptr %12, align 8, !tbaa !9
  call void @llvm.lifetime.start.p0(i64 8, ptr %13) #5
  %21 = load double, ptr %9, align 8, !tbaa !9
  %22 = fdiv double %21, 0x3FF921FB54442D18
  %23 = call double @pow(double noundef %22, double noundef 0x3FD5555555555555) #5, !tbaa !11
  store double %23, ptr %9, align 8, !tbaa !9
  %24 = load ptr, ptr %6, align 8, !tbaa !4
  %25 = load i32, ptr %11, align 4, !tbaa !11
  %26 = sub nsw i32 %25, 1
  %27 = mul nsw i32 6, %26
  %28 = sext i32 %27 to i64
  %29 = getelementptr inbounds double, ptr %24, i64 %28
  store ptr %29, ptr %10, align 8, !tbaa !4
  %30 = load double, ptr %8, align 8, !tbaa !9
  %31 = fsub double 1.000000e+00, %30
  %32 = load double, ptr %12, align 8, !tbaa !9
  %33 = fsub double 1.000000e+00, %32
  %34 = fmul double %31, %33
  %35 = load double, ptr %9, align 8, !tbaa !9
  %36 = fsub double 1.000000e+00, %35
  %37 = call double @pow(double noundef %36, double noundef 5.000000e+00) #5, !tbaa !11
  %38 = load ptr, ptr %10, align 8, !tbaa !4
  %39 = getelementptr inbounds double, ptr %38, i64 0
  %40 = load double, ptr %39, align 8, !tbaa !9
  %41 = load double, ptr %9, align 8, !tbaa !9
  %42 = fsub double 1.000000e+00, %41
  %43 = call double @pow(double noundef %42, double noundef 4.000000e+00) #5, !tbaa !11
  %44 = fmul double 5.000000e+00, %43
  %45 = load double, ptr %9, align 8, !tbaa !9
  %46 = fmul double %44, %45
  %47 = load ptr, ptr %10, align 8, !tbaa !4
  %48 = getelementptr inbounds double, ptr %47, i64 1
  %49 = load double, ptr %48, align 8, !tbaa !9
  %50 = fmul double %46, %49
  %51 = call double @llvm.fmuladd.f64(double %37, double %40, double %50)
  %52 = load double, ptr %9, align 8, !tbaa !9
  %53 = fsub double 1.000000e+00, %52
  %54 = call double @pow(double noundef %53, double noundef 3.000000e+00) #5, !tbaa !11
  %55 = fmul double 1.000000e+01, %54
  %56 = load double, ptr %9, align 8, !tbaa !9
  %57 = call double @pow(double noundef %56, double noundef 2.000000e+00) #5, !tbaa !11
  %58 = fmul double %55, %57
  %59 = load ptr, ptr %10, align 8, !tbaa !4
  %60 = getelementptr inbounds double, ptr %59, i64 2
  %61 = load double, ptr %60, align 8, !tbaa !9
  %62 = call double @llvm.fmuladd.f64(double %58, double %61, double %51)
  %63 = load double, ptr %9, align 8, !tbaa !9
  %64 = fsub double 1.000000e+00, %63
  %65 = call double @pow(double noundef %64, double noundef 2.000000e+00) #5, !tbaa !11
  %66 = fmul double 1.000000e+01, %65
  %67 = load double, ptr %9, align 8, !tbaa !9
  %68 = call double @pow(double noundef %67, double noundef 3.000000e+00) #5, !tbaa !11
  %69 = fmul double %66, %68
  %70 = load ptr, ptr %10, align 8, !tbaa !4
  %71 = getelementptr inbounds double, ptr %70, i64 3
  %72 = load double, ptr %71, align 8, !tbaa !9
  %73 = call double @llvm.fmuladd.f64(double %69, double %72, double %62)
  %74 = load double, ptr %9, align 8, !tbaa !9
  %75 = fsub double 1.000000e+00, %74
  %76 = fmul double 5.000000e+00, %75
  %77 = load double, ptr %9, align 8, !tbaa !9
  %78 = call double @pow(double noundef %77, double noundef 4.000000e+00) #5, !tbaa !11
  %79 = fmul double %76, %78
  %80 = load ptr, ptr %10, align 8, !tbaa !4
  %81 = getelementptr inbounds double, ptr %80, i64 4
  %82 = load double, ptr %81, align 8, !tbaa !9
  %83 = call double @llvm.fmuladd.f64(double %79, double %82, double %73)
  %84 = load double, ptr %9, align 8, !tbaa !9
  %85 = call double @pow(double noundef %84, double noundef 5.000000e+00) #5, !tbaa !11
  %86 = load ptr, ptr %10, align 8, !tbaa !4
  %87 = getelementptr inbounds double, ptr %86, i64 5
  %88 = load double, ptr %87, align 8, !tbaa !9
  %89 = call double @llvm.fmuladd.f64(double %85, double %88, double %83)
  %90 = fmul double %34, %89
  store double %90, ptr %13, align 8, !tbaa !9
  %91 = load ptr, ptr %6, align 8, !tbaa !4
  %92 = load i32, ptr %11, align 4, !tbaa !11
  %93 = sub nsw i32 %92, 1
  %94 = mul nsw i32 6, %93
  %95 = add nsw i32 60, %94
  %96 = sext i32 %95 to i64
  %97 = getelementptr inbounds double, ptr %91, i64 %96
  store ptr %97, ptr %10, align 8, !tbaa !4
  %98 = load double, ptr %8, align 8, !tbaa !9
  %99 = load double, ptr %12, align 8, !tbaa !9
  %100 = fsub double 1.000000e+00, %99
  %101 = fmul double %98, %100
  %102 = load double, ptr %9, align 8, !tbaa !9
  %103 = fsub double 1.000000e+00, %102
  %104 = call double @pow(double noundef %103, double noundef 5.000000e+00) #5, !tbaa !11
  %105 = load ptr, ptr %10, align 8, !tbaa !4
  %106 = getelementptr inbounds double, ptr %105, i64 0
  %107 = load double, ptr %106, align 8, !tbaa !9
  %108 = load double, ptr %9, align 8, !tbaa !9
  %109 = fsub double 1.000000e+00, %108
  %110 = call double @pow(double noundef %109, double noundef 4.000000e+00) #5, !tbaa !11
  %111 = fmul double 5.000000e+00, %110
  %112 = load double, ptr %9, align 8, !tbaa !9
  %113 = fmul double %111, %112
  %114 = load ptr, ptr %10, align 8, !tbaa !4
  %115 = getelementptr inbounds double, ptr %114, i64 1
  %116 = load double, ptr %115, align 8, !tbaa !9
  %117 = fmul double %113, %116
  %118 = call double @llvm.fmuladd.f64(double %104, double %107, double %117)
  %119 = load double, ptr %9, align 8, !tbaa !9
  %120 = fsub double 1.000000e+00, %119
  %121 = call double @pow(double noundef %120, double noundef 3.000000e+00) #5, !tbaa !11
  %122 = fmul double 1.000000e+01, %121
  %123 = load double, ptr %9, align 8, !tbaa !9
  %124 = call double @pow(double noundef %123, double noundef 2.000000e+00) #5, !tbaa !11
  %125 = fmul double %122, %124
  %126 = load ptr, ptr %10, align 8, !tbaa !4
  %127 = getelementptr inbounds double, ptr %126, i64 2
  %128 = load double, ptr %127, align 8, !tbaa !9
  %129 = call double @llvm.fmuladd.f64(double %125, double %128, double %118)
  %130 = load double, ptr %9, align 8, !tbaa !9
  %131 = fsub double 1.000000e+00, %130
  %132 = call double @pow(double noundef %131, double noundef 2.000000e+00) #5, !tbaa !11
  %133 = fmul double 1.000000e+01, %132
  %134 = load double, ptr %9, align 8, !tbaa !9
  %135 = call double @pow(double noundef %134, double noundef 3.000000e+00) #5, !tbaa !11
  %136 = fmul double %133, %135
  %137 = load ptr, ptr %10, align 8, !tbaa !4
  %138 = getelementptr inbounds double, ptr %137, i64 3
  %139 = load double, ptr %138, align 8, !tbaa !9
  %140 = call double @llvm.fmuladd.f64(double %136, double %139, double %129)
  %141 = load double, ptr %9, align 8, !tbaa !9
  %142 = fsub double 1.000000e+00, %141
  %143 = fmul double 5.000000e+00, %142
  %144 = load double, ptr %9, align 8, !tbaa !9
  %145 = call double @pow(double noundef %144, double noundef 4.000000e+00) #5, !tbaa !11
  %146 = fmul double %143, %145
  %147 = load ptr, ptr %10, align 8, !tbaa !4
  %148 = getelementptr inbounds double, ptr %147, i64 4
  %149 = load double, ptr %148, align 8, !tbaa !9
  %150 = call double @llvm.fmuladd.f64(double %146, double %149, double %140)
  %151 = load double, ptr %9, align 8, !tbaa !9
  %152 = call double @pow(double noundef %151, double noundef 5.000000e+00) #5, !tbaa !11
  %153 = load ptr, ptr %10, align 8, !tbaa !4
  %154 = getelementptr inbounds double, ptr %153, i64 5
  %155 = load double, ptr %154, align 8, !tbaa !9
  %156 = call double @llvm.fmuladd.f64(double %152, double %155, double %150)
  %157 = load double, ptr %13, align 8, !tbaa !9
  %158 = call double @llvm.fmuladd.f64(double %101, double %156, double %157)
  store double %158, ptr %13, align 8, !tbaa !9
  %159 = load i32, ptr %11, align 4, !tbaa !11
  %160 = icmp eq i32 %159, 10
  br i1 %160, label %161, label %163

161:                                              ; preds = %4
  %162 = load double, ptr %13, align 8, !tbaa !9
  store double %162, ptr %5, align 8
  store i32 1, ptr %14, align 4
  br label %297

163:                                              ; preds = %4
  %164 = load ptr, ptr %6, align 8, !tbaa !4
  %165 = load i32, ptr %11, align 4, !tbaa !11
  %166 = mul nsw i32 6, %165
  %167 = sext i32 %166 to i64
  %168 = getelementptr inbounds double, ptr %164, i64 %167
  store ptr %168, ptr %10, align 8, !tbaa !4
  %169 = load double, ptr %8, align 8, !tbaa !9
  %170 = fsub double 1.000000e+00, %169
  %171 = load double, ptr %12, align 8, !tbaa !9
  %172 = fmul double %170, %171
  %173 = load double, ptr %9, align 8, !tbaa !9
  %174 = fsub double 1.000000e+00, %173
  %175 = call double @pow(double noundef %174, double noundef 5.000000e+00) #5, !tbaa !11
  %176 = load ptr, ptr %10, align 8, !tbaa !4
  %177 = getelementptr inbounds double, ptr %176, i64 0
  %178 = load double, ptr %177, align 8, !tbaa !9
  %179 = load double, ptr %9, align 8, !tbaa !9
  %180 = fsub double 1.000000e+00, %179
  %181 = call double @pow(double noundef %180, double noundef 4.000000e+00) #5, !tbaa !11
  %182 = fmul double 5.000000e+00, %181
  %183 = load double, ptr %9, align 8, !tbaa !9
  %184 = fmul double %182, %183
  %185 = load ptr, ptr %10, align 8, !tbaa !4
  %186 = getelementptr inbounds double, ptr %185, i64 1
  %187 = load double, ptr %186, align 8, !tbaa !9
  %188 = fmul double %184, %187
  %189 = call double @llvm.fmuladd.f64(double %175, double %178, double %188)
  %190 = load double, ptr %9, align 8, !tbaa !9
  %191 = fsub double 1.000000e+00, %190
  %192 = call double @pow(double noundef %191, double noundef 3.000000e+00) #5, !tbaa !11
  %193 = fmul double 1.000000e+01, %192
  %194 = load double, ptr %9, align 8, !tbaa !9
  %195 = call double @pow(double noundef %194, double noundef 2.000000e+00) #5, !tbaa !11
  %196 = fmul double %193, %195
  %197 = load ptr, ptr %10, align 8, !tbaa !4
  %198 = getelementptr inbounds double, ptr %197, i64 2
  %199 = load double, ptr %198, align 8, !tbaa !9
  %200 = call double @llvm.fmuladd.f64(double %196, double %199, double %189)
  %201 = load double, ptr %9, align 8, !tbaa !9
  %202 = fsub double 1.000000e+00, %201
  %203 = call double @pow(double noundef %202, double noundef 2.000000e+00) #5, !tbaa !11
  %204 = fmul double 1.000000e+01, %203
  %205 = load double, ptr %9, align 8, !tbaa !9
  %206 = call double @pow(double noundef %205, double noundef 3.000000e+00) #5, !tbaa !11
  %207 = fmul double %204, %206
  %208 = load ptr, ptr %10, align 8, !tbaa !4
  %209 = getelementptr inbounds double, ptr %208, i64 3
  %210 = load double, ptr %209, align 8, !tbaa !9
  %211 = call double @llvm.fmuladd.f64(double %207, double %210, double %200)
  %212 = load double, ptr %9, align 8, !tbaa !9
  %213 = fsub double 1.000000e+00, %212
  %214 = fmul double 5.000000e+00, %213
  %215 = load double, ptr %9, align 8, !tbaa !9
  %216 = call double @pow(double noundef %215, double noundef 4.000000e+00) #5, !tbaa !11
  %217 = fmul double %214, %216
  %218 = load ptr, ptr %10, align 8, !tbaa !4
  %219 = getelementptr inbounds double, ptr %218, i64 4
  %220 = load double, ptr %219, align 8, !tbaa !9
  %221 = call double @llvm.fmuladd.f64(double %217, double %220, double %211)
  %222 = load double, ptr %9, align 8, !tbaa !9
  %223 = call double @pow(double noundef %222, double noundef 5.000000e+00) #5, !tbaa !11
  %224 = load ptr, ptr %10, align 8, !tbaa !4
  %225 = getelementptr inbounds double, ptr %224, i64 5
  %226 = load double, ptr %225, align 8, !tbaa !9
  %227 = call double @llvm.fmuladd.f64(double %223, double %226, double %221)
  %228 = load double, ptr %13, align 8, !tbaa !9
  %229 = call double @llvm.fmuladd.f64(double %172, double %227, double %228)
  store double %229, ptr %13, align 8, !tbaa !9
  %230 = load ptr, ptr %6, align 8, !tbaa !4
  %231 = load i32, ptr %11, align 4, !tbaa !11
  %232 = mul nsw i32 6, %231
  %233 = add nsw i32 60, %232
  %234 = sext i32 %233 to i64
  %235 = getelementptr inbounds double, ptr %230, i64 %234
  store ptr %235, ptr %10, align 8, !tbaa !4
  %236 = load double, ptr %8, align 8, !tbaa !9
  %237 = load double, ptr %12, align 8, !tbaa !9
  %238 = fmul double %236, %237
  %239 = load double, ptr %9, align 8, !tbaa !9
  %240 = fsub double 1.000000e+00, %239
  %241 = call double @pow(double noundef %240, double noundef 5.000000e+00) #5, !tbaa !11
  %242 = load ptr, ptr %10, align 8, !tbaa !4
  %243 = getelementptr inbounds double, ptr %242, i64 0
  %244 = load double, ptr %243, align 8, !tbaa !9
  %245 = load double, ptr %9, align 8, !tbaa !9
  %246 = fsub double 1.000000e+00, %245
  %247 = call double @pow(double noundef %246, double noundef 4.000000e+00) #5, !tbaa !11
  %248 = fmul double 5.000000e+00, %247
  %249 = load double, ptr %9, align 8, !tbaa !9
  %250 = fmul double %248, %249
  %251 = load ptr, ptr %10, align 8, !tbaa !4
  %252 = getelementptr inbounds double, ptr %251, i64 1
  %253 = load double, ptr %252, align 8, !tbaa !9
  %254 = fmul double %250, %253
  %255 = call double @llvm.fmuladd.f64(double %241, double %244, double %254)
  %256 = load double, ptr %9, align 8, !tbaa !9
  %257 = fsub double 1.000000e+00, %256
  %258 = call double @pow(double noundef %257, double noundef 3.000000e+00) #5, !tbaa !11
  %259 = fmul double 1.000000e+01, %258
  %260 = load double, ptr %9, align 8, !tbaa !9
  %261 = call double @pow(double noundef %260, double noundef 2.000000e+00) #5, !tbaa !11
  %262 = fmul double %259, %261
  %263 = load ptr, ptr %10, align 8, !tbaa !4
  %264 = getelementptr inbounds double, ptr %263, i64 2
  %265 = load double, ptr %264, align 8, !tbaa !9
  %266 = call double @llvm.fmuladd.f64(double %262, double %265, double %255)
  %267 = load double, ptr %9, align 8, !tbaa !9
  %268 = fsub double 1.000000e+00, %267
  %269 = call double @pow(double noundef %268, double noundef 2.000000e+00) #5, !tbaa !11
  %270 = fmul double 1.000000e+01, %269
  %271 = load double, ptr %9, align 8, !tbaa !9
  %272 = call double @pow(double noundef %271, double noundef 3.000000e+00) #5, !tbaa !11
  %273 = fmul double %270, %272
  %274 = load ptr, ptr %10, align 8, !tbaa !4
  %275 = getelementptr inbounds double, ptr %274, i64 3
  %276 = load double, ptr %275, align 8, !tbaa !9
  %277 = call double @llvm.fmuladd.f64(double %273, double %276, double %266)
  %278 = load double, ptr %9, align 8, !tbaa !9
  %279 = fsub double 1.000000e+00, %278
  %280 = fmul double 5.000000e+00, %279
  %281 = load double, ptr %9, align 8, !tbaa !9
  %282 = call double @pow(double noundef %281, double noundef 4.000000e+00) #5, !tbaa !11
  %283 = fmul double %280, %282
  %284 = load ptr, ptr %10, align 8, !tbaa !4
  %285 = getelementptr inbounds double, ptr %284, i64 4
  %286 = load double, ptr %285, align 8, !tbaa !9
  %287 = call double @llvm.fmuladd.f64(double %283, double %286, double %277)
  %288 = load double, ptr %9, align 8, !tbaa !9
  %289 = call double @pow(double noundef %288, double noundef 5.000000e+00) #5, !tbaa !11
  %290 = load ptr, ptr %10, align 8, !tbaa !4
  %291 = getelementptr inbounds double, ptr %290, i64 5
  %292 = load double, ptr %291, align 8, !tbaa !9
  %293 = call double @llvm.fmuladd.f64(double %289, double %292, double %287)
  %294 = load double, ptr %13, align 8, !tbaa !9
  %295 = call double @llvm.fmuladd.f64(double %238, double %293, double %294)
  store double %295, ptr %13, align 8, !tbaa !9
  %296 = load double, ptr %13, align 8, !tbaa !9
  store double %296, ptr %5, align 8
  store i32 1, ptr %14, align 4
  br label %297

297:                                              ; preds = %163, %161
  call void @llvm.lifetime.end.p0(i64 8, ptr %13) #5
  call void @llvm.lifetime.end.p0(i64 8, ptr %12) #5
  call void @llvm.lifetime.end.p0(i64 4, ptr %11) #5
  call void @llvm.lifetime.end.p0(i64 8, ptr %10) #5
  %298 = load double, ptr %5, align 8
  ret double %298
}