; Function Attrs: mustprogress nofree nounwind willreturn memory(write, argmem: readwrite) uwtable
define dso_local double @ArHosekSkyModel_CookRadianceConfiguration(ptr noundef readonly captures(none) %0, double noundef %1, double noundef %2, double noundef %3) local_unnamed_addr #4 {
  %5 = fptosi double %1 to i32
  %6 = sitofp i32 %5 to double
  %7 = fsub double %1, %6
  %8 = fdiv double %3, 0x3FF921FB54442D18
  %9 = tail call double @pow(double noundef %8, double noundef 0x3FD5555555555555) #12, !tbaa !4
  %10 = mul i32 %5, 6
  %11 = add i32 %10, -6
  %12 = sext i32 %11 to i64
  %13 = getelementptr inbounds double, ptr %0, i64 %12
  %14 = fsub double 1.000000e+00, %2
  %15 = fsub double 1.000000e+00, %7
  %16 = fmul double %14, %15
  %17 = fsub double 1.000000e+00, %9
  %18 = tail call double @pow(double noundef %17, double noundef 5.000000e+00) #12, !tbaa !4
  %19 = load double, ptr %13, align 8, !tbaa !8
  %20 = tail call double @pow(double noundef %17, double noundef 4.000000e+00) #12, !tbaa !4
  %21 = fmul double %20, 5.000000e+00
  %22 = fmul double %9, %21
  %23 = getelementptr inbounds nuw i8, ptr %13, i64 8
  %24 = load double, ptr %23, align 8, !tbaa !8
  %25 = fmul double %24, %22
  %26 = tail call double @llvm.fmuladd.f64(double %18, double %19, double %25)
  %27 = tail call double @pow(double noundef %17, double noundef 3.000000e+00) #12, !tbaa !4
  %28 = fmul double %27, 1.000000e+01
  %square = fmul double %9, %9
  %29 = fmul double %square, %28
  %30 = getelementptr inbounds nuw i8, ptr %13, i64 16
  %31 = load double, ptr %30, align 8, !tbaa !8
  %32 = tail call double @llvm.fmuladd.f64(double %29, double %31, double %26)
  %square91 = fmul double %17, %17
  %33 = fmul double %square91, 1.000000e+01
  %34 = tail call double @pow(double noundef %9, double noundef 3.000000e+00) #12, !tbaa !4
  %35 = fmul double %33, %34
  %36 = getelementptr inbounds nuw i8, ptr %13, i64 24
  %37 = load double, ptr %36, align 8, !tbaa !8
  %38 = tail call double @llvm.fmuladd.f64(double %35, double %37, double %32)
  %39 = fmul double %17, 5.000000e+00
  %40 = tail call double @pow(double noundef %9, double noundef 4.000000e+00) #12, !tbaa !4
  %41 = fmul double %39, %40
  %42 = getelementptr inbounds nuw i8, ptr %13, i64 32
  %43 = load double, ptr %42, align 8, !tbaa !8
  %44 = tail call double @llvm.fmuladd.f64(double %41, double %43, double %38)
  %45 = tail call double @pow(double noundef %9, double noundef 5.000000e+00) #12, !tbaa !4
  %46 = getelementptr inbounds nuw i8, ptr %13, i64 40
  %47 = load double, ptr %46, align 8, !tbaa !8
  %48 = tail call double @llvm.fmuladd.f64(double %45, double %47, double %44)
  %49 = fmul double %16, %48
  %50 = add i32 %10, 54
  %51 = sext i32 %50 to i64
  %52 = getelementptr inbounds double, ptr %0, i64 %51
  %53 = fmul double %2, %15
  %54 = tail call double @pow(double noundef %17, double noundef 5.000000e+00) #12, !tbaa !4
  %55 = load double, ptr %52, align 8, !tbaa !8
  %56 = tail call double @pow(double noundef %17, double noundef 4.000000e+00) #12, !tbaa !4
  %57 = fmul double %56, 5.000000e+00
  %58 = fmul double %9, %57
  %59 = getelementptr inbounds nuw i8, ptr %52, i64 8
  %60 = load double, ptr %59, align 8, !tbaa !8
  %61 = fmul double %60, %58
  %62 = tail call double @llvm.fmuladd.f64(double %54, double %55, double %61)
  %63 = tail call double @pow(double noundef %17, double noundef 3.000000e+00) #12, !tbaa !4
  %64 = fmul double %63, 1.000000e+01
  %65 = fmul double %square, %64
  %66 = getelementptr inbounds nuw i8, ptr %52, i64 16
  %67 = load double, ptr %66, align 8, !tbaa !8
  %68 = tail call double @llvm.fmuladd.f64(double %65, double %67, double %62)
  %69 = tail call double @pow(double noundef %9, double noundef 3.000000e+00) #12, !tbaa !4
  %70 = fmul double %33, %69
  %71 = getelementptr inbounds nuw i8, ptr %52, i64 24
  %72 = load double, ptr %71, align 8, !tbaa !8
  %73 = tail call double @llvm.fmuladd.f64(double %70, double %72, double %68)
  %74 = tail call double @pow(double noundef %9, double noundef 4.000000e+00) #12, !tbaa !4
  %75 = fmul double %39, %74
  %76 = getelementptr inbounds nuw i8, ptr %52, i64 32
  %77 = load double, ptr %76, align 8, !tbaa !8
  %78 = tail call double @llvm.fmuladd.f64(double %75, double %77, double %73)
  %79 = tail call double @pow(double noundef %9, double noundef 5.000000e+00) #12, !tbaa !4
  %80 = getelementptr inbounds nuw i8, ptr %52, i64 40
  %81 = load double, ptr %80, align 8, !tbaa !8
  %82 = tail call double @llvm.fmuladd.f64(double %79, double %81, double %78)
  %83 = tail call double @llvm.fmuladd.f64(double %53, double %82, double %49)
  %84 = icmp eq i32 %5, 10
  br i1 %84, label %151, label %85

85:                                               ; preds = %4
  %86 = sext i32 %10 to i64
  %87 = getelementptr inbounds double, ptr %0, i64 %86
  %88 = fmul double %14, %7
  %89 = tail call double @pow(double noundef %17, double noundef 5.000000e+00) #12, !tbaa !4
  %90 = load double, ptr %87, align 8, !tbaa !8
  %91 = tail call double @pow(double noundef %17, double noundef 4.000000e+00) #12, !tbaa !4
  %92 = fmul double %91, 5.000000e+00
  %93 = fmul double %9, %92
  %94 = getelementptr inbounds nuw i8, ptr %87, i64 8
  %95 = load double, ptr %94, align 8, !tbaa !8
  %96 = fmul double %95, %93
  %97 = tail call double @llvm.fmuladd.f64(double %89, double %90, double %96)
  %98 = tail call double @pow(double noundef %17, double noundef 3.000000e+00) #12, !tbaa !4
  %99 = fmul double %98, 1.000000e+01
  %100 = fmul double %square, %99
  %101 = getelementptr inbounds nuw i8, ptr %87, i64 16
  %102 = load double, ptr %101, align 8, !tbaa !8
  %103 = tail call double @llvm.fmuladd.f64(double %100, double %102, double %97)
  %104 = tail call double @pow(double noundef %9, double noundef 3.000000e+00) #12, !tbaa !4
  %105 = fmul double %33, %104
  %106 = getelementptr inbounds nuw i8, ptr %87, i64 24
  %107 = load double, ptr %106, align 8, !tbaa !8
  %108 = tail call double @llvm.fmuladd.f64(double %105, double %107, double %103)
  %109 = tail call double @pow(double noundef %9, double noundef 4.000000e+00) #12, !tbaa !4
  %110 = fmul double %39, %109
  %111 = getelementptr inbounds nuw i8, ptr %87, i64 32
  %112 = load double, ptr %111, align 8, !tbaa !8
  %113 = tail call double @llvm.fmuladd.f64(double %110, double %112, double %108)
  %114 = tail call double @pow(double noundef %9, double noundef 5.000000e+00) #12, !tbaa !4
  %115 = getelementptr inbounds nuw i8, ptr %87, i64 40
  %116 = load double, ptr %115, align 8, !tbaa !8
  %117 = tail call double @llvm.fmuladd.f64(double %114, double %116, double %113)
  %118 = tail call double @llvm.fmuladd.f64(double %88, double %117, double %83)
  %119 = getelementptr i8, ptr %87, i64 480
  %120 = fmul double %2, %7
  %121 = tail call double @pow(double noundef %17, double noundef 5.000000e+00) #12, !tbaa !4
  %122 = load double, ptr %119, align 8, !tbaa !8
  %123 = tail call double @pow(double noundef %17, double noundef 4.000000e+00) #12, !tbaa !4
  %124 = fmul double %123, 5.000000e+00
  %125 = fmul double %9, %124
  %126 = getelementptr i8, ptr %87, i64 488
  %127 = load double, ptr %126, align 8, !tbaa !8
  %128 = fmul double %127, %125
  %129 = tail call double @llvm.fmuladd.f64(double %121, double %122, double %128)
  %130 = tail call double @pow(double noundef %17, double noundef 3.000000e+00) #12, !tbaa !4
  %131 = fmul double %130, 1.000000e+01
  %132 = fmul double %square, %131
  %133 = getelementptr i8, ptr %87, i64 496
  %134 = load double, ptr %133, align 8, !tbaa !8
  %135 = tail call double @llvm.fmuladd.f64(double %132, double %134, double %129)
  %136 = tail call double @pow(double noundef %9, double noundef 3.000000e+00) #12, !tbaa !4
  %137 = fmul double %33, %136
  %138 = getelementptr i8, ptr %87, i64 504
  %139 = load double, ptr %138, align 8, !tbaa !8
  %140 = tail call double @llvm.fmuladd.f64(double %137, double %139, double %135)
  %141 = tail call double @pow(double noundef %9, double noundef 4.000000e+00) #12, !tbaa !4
  %142 = fmul double %39, %141
  %143 = getelementptr i8, ptr %87, i64 512
  %144 = load double, ptr %143, align 8, !tbaa !8
  %145 = tail call double @llvm.fmuladd.f64(double %142, double %144, double %140)
  %146 = tail call double @pow(double noundef %9, double noundef 5.000000e+00) #12, !tbaa !4
  %147 = getelementptr i8, ptr %87, i64 520
  %148 = load double, ptr %147, align 8, !tbaa !8
  %149 = tail call double @llvm.fmuladd.f64(double %146, double %148, double %145)
  %150 = tail call double @llvm.fmuladd.f64(double %120, double %149, double %118)
  br label %151

151:                                              ; preds = %4, %85
  %.0 = phi double [ %150, %85 ], [ %83, %4 ]
  ret double %.0
}